; Function Attrs: nounwind uwtable
define internal void @_ZThn8_N8facebook6hermes12_GLOBAL__N_112TimedRuntimeD0Ev(ptr noundef %this) unnamed_addr #7 align 2 personality ptr @__gxx_personality_v0 {
entry:
  %runtime_.i.i = getelementptr inbounds i8, ptr %this, i64 96
  %0 = load ptr, ptr %runtime_.i.i, align 8
  %cmp.not.i.i.i = icmp eq ptr %0, null
  br i1 %cmp.not.i.i.i, label %_ZN8facebook6hermes12_GLOBAL__N_112TimedRuntimeD0Ev.exit, label %_ZNKSt14default_deleteIN8facebook3jsi7RuntimeEEclEPS2_.exit.i.i.i

_ZNKSt14default_deleteIN8facebook3jsi7RuntimeEEclEPS2_.exit.i.i.i: ; preds = %entry
  %vtable.i.i.i.i = load ptr, ptr %0, align 8
  %vfn.i.i.i.i = getelementptr inbounds i8, ptr %vtable.i.i.i.i, i64 8
  %1 = load ptr, ptr %vfn.i.i.i.i, align 8
  tail call void %1(ptr noundef nonnull align 8 dereferenceable(8) %0) #21
  br label %_ZN8facebook6hermes12_GLOBAL__N_112TimedRuntimeD0Ev.exit

_ZN8facebook6hermes12_GLOBAL__N_112TimedRuntimeD0Ev.exit: ; preds = %entry, %_ZNKSt14default_deleteIN8facebook3jsi7RuntimeEEclEPS2_.exit.i.i.i
  %2 = getelementptr inbounds i8, ptr %this, i64 -8
  store ptr null, ptr %runtime_.i.i, align 8
  tail call void @_ZN8facebook3jsi7RuntimeD2Ev(ptr noundef nonnull align 8 dereferenceable(8) %2) #21
  tail call void @_ZdlPv(ptr noundef nonnull %2) #22
  ret void
}